; Function Attrs: nounwind sspstrong uwtable
define internal i64 @ip_addr(i32 noundef %0, ptr noundef readonly captures(none) %1, i64 noundef %2) #0 {
  %4 = alloca %union.union_sockaddr, align 8
  %5 = alloca i32, align 4
  call void @llvm.lifetime.start.p0(i64 2048, ptr nonnull %4) #19
  call void @llvm.lifetime.start.p0(i64 4, ptr nonnull %5) #19
  store i32 2048, ptr %5, align 4, !tbaa !6
  %6 = icmp slt i32 %0, 1
  br i1 %6, label %rsock_revlookup_flag.exit, label %7

7:                                                ; preds = %3
  %8 = load i64, ptr %1, align 8, !tbaa !79
  switch i64 %8, label %9 [
    i64 20, label %.sink.split.i
    i64 0, label %rsock_revlookup_flag.exit.thread
    i64 4, label %rsock_revlookup_flag.exit
  ]

9:                                                ; preds = %7
  %10 = and i64 %8, 255
  %11 = icmp eq i64 %10, 12
  br i1 %11, label %Check_Type.exit.i, label %12

12:                                               ; preds = %9
  %13 = icmp eq i64 %8, 0
  %14 = and i64 %8, 7
  %15 = icmp ne i64 %14, 0
  %16 = or i1 %13, %15
  br i1 %16, label %RB_SYMBOL_P.exit.thread9.i.i, label %RB_SYMBOL_P.exit.i.i, !prof !106

RB_SYMBOL_P.exit.i.i:                             ; preds = %12
  %17 = inttoptr i64 %8 to ptr
  %18 = load i64, ptr %17, align 8, !tbaa !77
  %19 = and i64 %18, 31
  %20 = icmp eq i64 %19, 20
  br i1 %20, label %Check_Type.exit.i, label %RB_SYMBOL_P.exit.thread9.i.i, !prof !107

RB_SYMBOL_P.exit.thread9.i.i:                     ; preds = %RB_SYMBOL_P.exit.i.i, %12
  tail call void @rb_unexpected_type(i64 noundef %8, i32 noundef 20) #26
  unreachable

Check_Type.exit.i:                                ; preds = %RB_SYMBOL_P.exit.i.i, %9
  %21 = tail call i64 @rb_sym2id(i64 noundef %8) #19
  %22 = load i64, ptr @id_numeric, align 8, !tbaa !79
  %23 = icmp eq i64 %21, %22
  br i1 %23, label %rsock_revlookup_flag.exit.thread, label %24

24:                                               ; preds = %Check_Type.exit.i
  %25 = load i64, ptr @id_hostname, align 8, !tbaa !79
  %26 = icmp eq i64 %21, %25
  br i1 %26, label %rsock_revlookup_flag.exit.thread, label %27

27:                                               ; preds = %24
  %28 = load i64, ptr @rb_eArgError, align 8, !tbaa !79
  %29 = tail call ptr @rb_id2name(i64 noundef %21) #19
  tail call void (i64, ptr, ...) @rb_raise(i64 noundef %28, ptr noundef nonnull @.str, ptr noundef %29) #21
  unreachable

.sink.split.i:                                    ; preds = %7
  br label %rsock_revlookup_flag.exit.thread

rsock_revlookup_flag.exit:                        ; preds = %7, %3
  %30 = tail call i32 @rb_io_mode(i64 noundef %2) #19
  %31 = and i32 %30, 256
  br label %rsock_revlookup_flag.exit.thread

rsock_revlookup_flag.exit.thread:                 ; preds = %7, %.sink.split.i, %Check_Type.exit.i, %24, %rsock_revlookup_flag.exit
  %.0 = phi i32 [ %31, %rsock_revlookup_flag.exit ], [ 0, %.sink.split.i ], [ 0, %24 ], [ 1, %Check_Type.exit.i ], [ 1, %7 ]
  %32 = tail call i32 @rb_io_descriptor(i64 noundef %2) #19
  %33 = call i32 @getsockname(i32 noundef %32, ptr nonnull %4, ptr noundef nonnull %5) #19
  %34 = icmp slt i32 %33, 0
  br i1 %34, label %35, label %38

35:                                               ; preds = %rsock_revlookup_flag.exit.thread
  %36 = call ptr @rb_errno_ptr() #19
  %37 = load i32, ptr %36, align 4, !tbaa !6
  call void @rb_syserr_fail(i32 noundef %37, ptr noundef nonnull @.str.36) #21
  unreachable

38:                                               ; preds = %rsock_revlookup_flag.exit.thread
  %39 = load i32, ptr %5, align 4, !tbaa !6
  %40 = call i64 @rsock_ipaddr(ptr noundef nonnull %4, i32 noundef %39, i32 noundef %.0) #19
  call void @llvm.lifetime.end.p0(i64 4, ptr nonnull %5) #19
  call void @llvm.lifetime.end.p0(i64 2048, ptr nonnull %4) #19
  ret i64 %40
}